target datalayout = "e-m:e-p270:32:32-p271:32:32-p272:64:64-i64:64-i128:128-f80:128-n8:16:32:64-S128"
target triple = "x86_64-pc-linux-gnu"

%struct.strvec = type { ptr, i64, i64 }
%struct.strbuf = type { i64, i64, ptr }
%struct.oidset = type { %struct.kh_oid_set }
%struct.kh_oid_set = type { i32, i32, i32, i32, ptr, ptr, ptr }
%struct.rev_info = type { ptr, %struct.object_array, ptr, %struct.object_array, %struct.rev_cmdline_info, %struct.list_objects_filter_options, %struct.ref_exclusions, ptr, ptr, ptr, %struct.pathspec, i32, i32, i32, i32, i64, i32, i32, %struct.date_mode, i32, i32, i32, i32, ptr, i32, i32, ptr, ptr, i32, ptr, ptr, %struct.ident_split, ptr, i32, ptr, ptr, ptr, i32, i32, i32, ptr, %struct.grep_opt, ptr, i32, i32, i64, i64, i64, i32, i32, ptr, ptr, ptr, %struct.diff_options, %struct.diff_options, ptr, %struct.decoration, %struct.decoration, %struct.decoration, %struct.display_notes_opt, ptr, ptr, ptr, ptr, ptr, i32, ptr, i32, i32, i32, %struct.decoration, ptr, ptr, ptr, ptr, ptr, ptr, ptr, i32, ptr, i32, ptr, %struct.oidset }
%struct.object_array = type { i32, i32, ptr }
%struct.rev_cmdline_info = type { i32, i32, ptr }
%struct.list_objects_filter_options = type { %struct.strbuf, i32, i8, ptr, i64, i64, i32, i64, i64, ptr }
%struct.ref_exclusions = type { %struct.string_list, %struct.strvec, i8 }
%struct.string_list = type { ptr, i64, i64, i8, ptr }
%struct.pathspec = type { i32, i8, i32, i32, ptr }
%struct.date_mode = type { i32, i32, ptr }
%struct.ident_split = type { ptr, ptr, ptr, ptr, ptr, ptr, ptr, ptr }
%struct.grep_opt = type { ptr, ptr, ptr, ptr, ptr, ptr, i32, i32, i32, i32, i32, i32, i32, i32, i32, i32, i32, i32, i32, i32, i32, i32, i32, i32, i32, i32, i32, i32, i32, i32, i32, i32, [9 x [75 x i8]], i32, i32, i32, i32, i32, i32, i32, ptr, ptr, ptr }
%struct.diff_options = type { ptr, ptr, i32, i32, ptr, i32, ptr, i64, i64, ptr, ptr, ptr, ptr, %struct.diff_flags, i32, i32, i32, i32, i32, i32, i32, i32, i32, i32, i32, i32, i32, i32, i32, i32, i32, i32, i32, i32, i32, i32, ptr, i32, ptr, i32, i32, ptr, i64, i64, i32, i32, i32, i32, ptr, i32, i32, ptr, i32, i32, ptr, ptr, i32, [3 x i8], %struct.pathspec, ptr, ptr, ptr, ptr, ptr, ptr, ptr, ptr, i32, ptr, i32, i32, ptr, ptr, i32 }
%struct.diff_flags = type { i32, i32, i32, i32, i32, i32, i32, i32, i32, i32, i32, i32, i32, i32, i32, i32, i32, i32, i32, i32, i32, i32, i32, i32, i32, i32, i32, i32, i32, i32, i32, i32, i32, i32, i32 }
%struct.display_notes_opt = type { i32, %struct.string_list }
%struct.decoration = type { ptr, i32, i32, ptr }

@tree_difference = internal global i32 0, align 4

; Function Attrs: nounwind uwtable
define internal void @file_add_remove(ptr noundef %0, i32 noundef %1, i32 noundef %2, ptr noundef %3, i32 noundef %4, ptr noundef %5, i32 noundef %6) #0 {
  %8 = alloca ptr, align 8
  %9 = alloca i32, align 4
  %10 = alloca i32, align 4
  %11 = alloca ptr, align 8
  %12 = alloca i32, align 4
  %13 = alloca ptr, align 8
  %14 = alloca i32, align 4
  %15 = alloca i32, align 4
  %16 = alloca ptr, align 8
  store ptr %0, ptr %8, align 8, !tbaa !232
  store i32 %1, ptr %9, align 4, !tbaa !9
  store i32 %2, ptr %10, align 4, !tbaa !9
  store ptr %3, ptr %11, align 8, !tbaa !54
  store i32 %4, ptr %12, align 4, !tbaa !9
  store ptr %5, ptr %13, align 8, !tbaa !39
  store i32 %6, ptr %14, align 4, !tbaa !9
  call void @llvm.lifetime.start.p0(i64 4, ptr %15) #12
  %17 = load i32, ptr %9, align 4, !tbaa !9
  %18 = icmp eq i32 %17, 43
  %19 = select i1 %18, i32 1, i32 2
  store i32 %19, ptr %15, align 4, !tbaa !9
  call void @llvm.lifetime.start.p0(i64 8, ptr %16) #12
  %20 = load ptr, ptr %8, align 8, !tbaa !232
  %21 = getelementptr inbounds nuw %struct.diff_options, ptr %20, i32 0, i32 62
  %22 = load ptr, ptr %21, align 8, !tbaa !234
  store ptr %22, ptr %16, align 8, !tbaa !88
  %23 = load i32, ptr %15, align 4, !tbaa !9
  %24 = load i32, ptr @tree_difference, align 4, !tbaa !9
  %25 = or i32 %24, %23
  store i32 %25, ptr @tree_difference, align 4, !tbaa !9
  %26 = load ptr, ptr %16, align 8, !tbaa !88
  %27 = getelementptr inbounds nuw %struct.rev_info, ptr %26, i32 0, i32 15
  %28 = load i64, ptr %27, align 8
  %29 = lshr i64 %28, 6
  %30 = and i64 %29, 1
  %31 = trunc i64 %30 to i32
  %32 = icmp ne i32 %31, 0
  br i1 %32, label %33, label %36

33:                                               ; preds = %7
  %34 = load i32, ptr @tree_difference, align 4, !tbaa !9
  %35 = icmp ne i32 %34, 1
  br i1 %35, label %36, label %40

36:                                               ; preds = %33, %7
  %37 = load ptr, ptr %8, align 8, !tbaa !232
  %38 = getelementptr inbounds nuw %struct.diff_options, ptr %37, i32 0, i32 13
  %39 = getelementptr inbounds nuw %struct.diff_flags, ptr %38, i32 0, i32 9
  store i32 1, ptr %39, align 4, !tbaa !235
  br label %40

40:                                               ; preds = %36, %33
  call void @llvm.lifetime.end.p0(i64 8, ptr %16) #12
  call void @llvm.lifetime.end.p0(i64 4, ptr %15) #12
  ret void
}