; Function Attrs: mustprogress nofree norecurse nosync nounwind willreturn memory(readwrite, inaccessiblemem: none) uwtable
define internal void @file_add_remove(ptr noundef captures(none) %0, i32 noundef %1, i32 %2, ptr readnone captures(none) %3, i32 %4, ptr readnone captures(none) %5, i32 %6) #14 {
  %8 = icmp eq i32 %1, 43
  %9 = select i1 %8, i32 1, i32 2
  %10 = getelementptr inbounds nuw i8, ptr %0, i64 504
  %11 = load ptr, ptr %10, align 8, !tbaa !185
  %12 = load i32, ptr @tree_difference, align 4, !tbaa !42
  %13 = or i32 %12, %9
  store i32 %13, ptr @tree_difference, align 4, !tbaa !42
  %14 = getelementptr inbounds nuw i8, ptr %11, i64 288
  %15 = load i64, ptr %14, align 8
  %16 = and i64 %15, 64
  %17 = icmp eq i64 %16, 0
  %18 = icmp ne i32 %13, 1
  %or.cond = select i1 %17, i1 true, i1 %18
  br i1 %or.cond, label %19, label %21

19:                                               ; preds = %7
  %20 = getelementptr inbounds nuw i8, ptr %0, i64 132
  store i32 1, ptr %20, align 4, !tbaa !186
  br label %21

21:                                               ; preds = %7, %19
  ret void
}